target datalayout = "e-m:e-p270:32:32-p271:32:32-p272:64:64-i64:64-i128:128-f80:128-n8:16:32:64-S128"
target triple = "x86_64-pc-linux-gnu"

; Function Attrs: nounwind uwtable
define internal void @FTransform_C(ptr noalias noundef %0, ptr noalias noundef %1, ptr noalias noundef %2) #0 {
  %4 = alloca ptr, align 8
  %5 = alloca ptr, align 8
  %6 = alloca ptr, align 8
  %7 = alloca i32, align 4
  %8 = alloca [16 x i32], align 16
  %9 = alloca i32, align 4
  %10 = alloca i32, align 4
  %11 = alloca i32, align 4
  %12 = alloca i32, align 4
  %13 = alloca i32, align 4
  %14 = alloca i32, align 4
  %15 = alloca i32, align 4
  %16 = alloca i32, align 4
  %17 = alloca i32, align 4
  %18 = alloca i32, align 4
  %19 = alloca i32, align 4
  %20 = alloca i32, align 4
  store ptr %0, ptr %4, align 8, !tbaa !18
  store ptr %1, ptr %5, align 8, !tbaa !18
  store ptr %2, ptr %6, align 8, !tbaa !20
  call void @llvm.lifetime.start.p0(i64 4, ptr %7) #8
  call void @llvm.lifetime.start.p0(i64 64, ptr %8) #8
  store i32 0, ptr %7, align 4, !tbaa !9
  br label %21

21:                                               ; preds = %115, %3
  %22 = load i32, ptr %7, align 4, !tbaa !9
  %23 = icmp slt i32 %22, 4
  br i1 %23, label %24, label %122

24:                                               ; preds = %21
  call void @llvm.lifetime.start.p0(i64 4, ptr %9) #8
  %25 = load ptr, ptr %4, align 8, !tbaa !18
  %26 = getelementptr inbounds i8, ptr %25, i64 0
  %27 = load i8, ptr %26, align 1, !tbaa !16
  %28 = zext i8 %27 to i32
  %29 = load ptr, ptr %5, align 8, !tbaa !18
  %30 = getelementptr inbounds i8, ptr %29, i64 0
  %31 = load i8, ptr %30, align 1, !tbaa !16
  %32 = zext i8 %31 to i32
  %33 = sub nsw i32 %28, %32
  store i32 %33, ptr %9, align 4, !tbaa !9
  call void @llvm.lifetime.start.p0(i64 4, ptr %10) #8
  %34 = load ptr, ptr %4, align 8, !tbaa !18
  %35 = getelementptr inbounds i8, ptr %34, i64 1
  %36 = load i8, ptr %35, align 1, !tbaa !16
  %37 = zext i8 %36 to i32
  %38 = load ptr, ptr %5, align 8, !tbaa !18
  %39 = getelementptr inbounds i8, ptr %38, i64 1
  %40 = load i8, ptr %39, align 1, !tbaa !16
  %41 = zext i8 %40 to i32
  %42 = sub nsw i32 %37, %41
  store i32 %42, ptr %10, align 4, !tbaa !9
  call void @llvm.lifetime.start.p0(i64 4, ptr %11) #8
  %43 = load ptr, ptr %4, align 8, !tbaa !18
  %44 = getelementptr inbounds i8, ptr %43, i64 2
  %45 = load i8, ptr %44, align 1, !tbaa !16
  %46 = zext i8 %45 to i32
  %47 = load ptr, ptr %5, align 8, !tbaa !18
  %48 = getelementptr inbounds i8, ptr %47, i64 2
  %49 = load i8, ptr %48, align 1, !tbaa !16
  %50 = zext i8 %49 to i32
  %51 = sub nsw i32 %46, %50
  store i32 %51, ptr %11, align 4, !tbaa !9
  call void @llvm.lifetime.start.p0(i64 4, ptr %12) #8
  %52 = load ptr, ptr %4, align 8, !tbaa !18
  %53 = getelementptr inbounds i8, ptr %52, i64 3
  %54 = load i8, ptr %53, align 1, !tbaa !16
  %55 = zext i8 %54 to i32
  %56 = load ptr, ptr %5, align 8, !tbaa !18
  %57 = getelementptr inbounds i8, ptr %56, i64 3
  %58 = load i8, ptr %57, align 1, !tbaa !16
  %59 = zext i8 %58 to i32
  %60 = sub nsw i32 %55, %59
  store i32 %60, ptr %12, align 4, !tbaa !9
  call void @llvm.lifetime.start.p0(i64 4, ptr %13) #8
  %61 = load i32, ptr %9, align 4, !tbaa !9
  %62 = load i32, ptr %12, align 4, !tbaa !9
  %63 = add nsw i32 %61, %62
  store i32 %63, ptr %13, align 4, !tbaa !9
  call void @llvm.lifetime.start.p0(i64 4, ptr %14) #8
  %64 = load i32, ptr %10, align 4, !tbaa !9
  %65 = load i32, ptr %11, align 4, !tbaa !9
  %66 = add nsw i32 %64, %65
  store i32 %66, ptr %14, align 4, !tbaa !9
  call void @llvm.lifetime.start.p0(i64 4, ptr %15) #8
  %67 = load i32, ptr %10, align 4, !tbaa !9
  %68 = load i32, ptr %11, align 4, !tbaa !9
  %69 = sub nsw i32 %67, %68
  store i32 %69, ptr %15, align 4, !tbaa !9
  call void @llvm.lifetime.start.p0(i64 4, ptr %16) #8
  %70 = load i32, ptr %9, align 4, !tbaa !9
  %71 = load i32, ptr %12, align 4, !tbaa !9
  %72 = sub nsw i32 %70, %71
  store i32 %72, ptr %16, align 4, !tbaa !9
  %73 = load i32, ptr %13, align 4, !tbaa !9
  %74 = load i32, ptr %14, align 4, !tbaa !9
  %75 = add nsw i32 %73, %74
  %76 = mul nsw i32 %75, 8
  %77 = load i32, ptr %7, align 4, !tbaa !9
  %78 = mul nsw i32 %77, 4
  %79 = add nsw i32 0, %78
  %80 = sext i32 %79 to i64
  %81 = getelementptr inbounds [16 x i32], ptr %8, i64 0, i64 %80
  store i32 %76, ptr %81, align 4, !tbaa !9
  %82 = load i32, ptr %15, align 4, !tbaa !9
  %83 = mul nsw i32 %82, 2217
  %84 = load i32, ptr %16, align 4, !tbaa !9
  %85 = mul nsw i32 %84, 5352
  %86 = add nsw i32 %83, %85
  %87 = add nsw i32 %86, 1812
  %88 = ashr i32 %87, 9
  %89 = load i32, ptr %7, align 4, !tbaa !9
  %90 = mul nsw i32 %89, 4
  %91 = add nsw i32 1, %90
  %92 = sext i32 %91 to i64
  %93 = getelementptr inbounds [16 x i32], ptr %8, i64 0, i64 %92
  store i32 %88, ptr %93, align 4, !tbaa !9
  %94 = load i32, ptr %13, align 4, !tbaa !9
  %95 = load i32, ptr %14, align 4, !tbaa !9
  %96 = sub nsw i32 %94, %95
  %97 = mul nsw i32 %96, 8
  %98 = load i32, ptr %7, align 4, !tbaa !9
  %99 = mul nsw i32 %98, 4
  %100 = add nsw i32 2, %99
  %101 = sext i32 %100 to i64
  %102 = getelementptr inbounds [16 x i32], ptr %8, i64 0, i64 %101
  store i32 %97, ptr %102, align 4, !tbaa !9
  %103 = load i32, ptr %16, align 4, !tbaa !9
  %104 = mul nsw i32 %103, 2217
  %105 = load i32, ptr %15, align 4, !tbaa !9
  %106 = mul nsw i32 %105, 5352
  %107 = sub nsw i32 %104, %106
  %108 = add nsw i32 %107, 937
  %109 = ashr i32 %108, 9
  %110 = load i32, ptr %7, align 4, !tbaa !9
  %111 = mul nsw i32 %110, 4
  %112 = add nsw i32 3, %111
  %113 = sext i32 %112 to i64
  %114 = getelementptr inbounds [16 x i32], ptr %8, i64 0, i64 %113
  store i32 %109, ptr %114, align 4, !tbaa !9
  call void @llvm.lifetime.end.p0(i64 4, ptr %16) #8
  call void @llvm.lifetime.end.p0(i64 4, ptr %15) #8
  call void @llvm.lifetime.end.p0(i64 4, ptr %14) #8
  call void @llvm.lifetime.end.p0(i64 4, ptr %13) #8
  call void @llvm.lifetime.end.p0(i64 4, ptr %12) #8
  call void @llvm.lifetime.end.p0(i64 4, ptr %11) #8
  call void @llvm.lifetime.end.p0(i64 4, ptr %10) #8
  call void @llvm.lifetime.end.p0(i64 4, ptr %9) #8
  br label %115

115:                                              ; preds = %24
  %116 = load i32, ptr %7, align 4, !tbaa !9
  %117 = add nsw i32 %116, 1
  store i32 %117, ptr %7, align 4, !tbaa !9
  %118 = load ptr, ptr %4, align 8, !tbaa !18
  %119 = getelementptr inbounds i8, ptr %118, i64 32
  store ptr %119, ptr %4, align 8, !tbaa !18
  %120 = load ptr, ptr %5, align 8, !tbaa !18
  %121 = getelementptr inbounds i8, ptr %120, i64 32
  store ptr %121, ptr %5, align 8, !tbaa !18
  br label %21, !llvm.loop !22

122:                                              ; preds = %21
  store i32 0, ptr %7, align 4, !tbaa !9
  br label %123

123:                                              ; preds = %223, %122
  %124 = load i32, ptr %7, align 4, !tbaa !9
  %125 = icmp slt i32 %124, 4
  br i1 %125, label %126, label %226

126:                                              ; preds = %123
  call void @llvm.lifetime.start.p0(i64 4, ptr %17) #8
  %127 = load i32, ptr %7, align 4, !tbaa !9
  %128 = add nsw i32 0, %127
  %129 = sext i32 %128 to i64
  %130 = getelementptr inbounds [16 x i32], ptr %8, i64 0, i64 %129
  %131 = load i32, ptr %130, align 4, !tbaa !9
  %132 = load i32, ptr %7, align 4, !tbaa !9
  %133 = add nsw i32 12, %132
  %134 = sext i32 %133 to i64
  %135 = getelementptr inbounds [16 x i32], ptr %8, i64 0, i64 %134
  %136 = load i32, ptr %135, align 4, !tbaa !9
  %137 = add nsw i32 %131, %136
  store i32 %137, ptr %17, align 4, !tbaa !9
  call void @llvm.lifetime.start.p0(i64 4, ptr %18) #8
  %138 = load i32, ptr %7, align 4, !tbaa !9
  %139 = add nsw i32 4, %138
  %140 = sext i32 %139 to i64
  %141 = getelementptr inbounds [16 x i32], ptr %8, i64 0, i64 %140
  %142 = load i32, ptr %141, align 4, !tbaa !9
  %143 = load i32, ptr %7, align 4, !tbaa !9
  %144 = add nsw i32 8, %143
  %145 = sext i32 %144 to i64
  %146 = getelementptr inbounds [16 x i32], ptr %8, i64 0, i64 %145
  %147 = load i32, ptr %146, align 4, !tbaa !9
  %148 = add nsw i32 %142, %147
  store i32 %148, ptr %18, align 4, !tbaa !9
  call void @llvm.lifetime.start.p0(i64 4, ptr %19) #8
  %149 = load i32, ptr %7, align 4, !tbaa !9
  %150 = add nsw i32 4, %149
  %151 = sext i32 %150 to i64
  %152 = getelementptr inbounds [16 x i32], ptr %8, i64 0, i64 %151
  %153 = load i32, ptr %152, align 4, !tbaa !9
  %154 = load i32, ptr %7, align 4, !tbaa !9
  %155 = add nsw i32 8, %154
  %156 = sext i32 %155 to i64
  %157 = getelementptr inbounds [16 x i32], ptr %8, i64 0, i64 %156
  %158 = load i32, ptr %157, align 4, !tbaa !9
  %159 = sub nsw i32 %153, %158
  store i32 %159, ptr %19, align 4, !tbaa !9
  call void @llvm.lifetime.start.p0(i64 4, ptr %20) #8
  %160 = load i32, ptr %7, align 4, !tbaa !9
  %161 = add nsw i32 0, %160
  %162 = sext i32 %161 to i64
  %163 = getelementptr inbounds [16 x i32], ptr %8, i64 0, i64 %162
  %164 = load i32, ptr %163, align 4, !tbaa !9
  %165 = load i32, ptr %7, align 4, !tbaa !9
  %166 = add nsw i32 12, %165
  %167 = sext i32 %166 to i64
  %168 = getelementptr inbounds [16 x i32], ptr %8, i64 0, i64 %167
  %169 = load i32, ptr %168, align 4, !tbaa !9
  %170 = sub nsw i32 %164, %169
  store i32 %170, ptr %20, align 4, !tbaa !9
  %171 = load i32, ptr %17, align 4, !tbaa !9
  %172 = load i32, ptr %18, align 4, !tbaa !9
  %173 = add nsw i32 %171, %172
  %174 = add nsw i32 %173, 7
  %175 = ashr i32 %174, 4
  %176 = trunc i32 %175 to i16
  %177 = load ptr, ptr %6, align 8, !tbaa !20
  %178 = load i32, ptr %7, align 4, !tbaa !9
  %179 = add nsw i32 0, %178
  %180 = sext i32 %179 to i64
  %181 = getelementptr inbounds i16, ptr %177, i64 %180
  store i16 %176, ptr %181, align 2, !tbaa !23
  %182 = load i32, ptr %19, align 4, !tbaa !9
  %183 = mul nsw i32 %182, 2217
  %184 = load i32, ptr %20, align 4, !tbaa !9
  %185 = mul nsw i32 %184, 5352
  %186 = add nsw i32 %183, %185
  %187 = add nsw i32 %186, 12000
  %188 = ashr i32 %187, 16
  %189 = load i32, ptr %20, align 4, !tbaa !9
  %190 = icmp ne i32 %189, 0
  %191 = zext i1 %190 to i32
  %192 = add nsw i32 %188, %191
  %193 = trunc i32 %192 to i16
  %194 = load ptr, ptr %6, align 8, !tbaa !20
  %195 = load i32, ptr %7, align 4, !tbaa !9
  %196 = add nsw i32 4, %195
  %197 = sext i32 %196 to i64
  %198 = getelementptr inbounds i16, ptr %194, i64 %197
  store i16 %193, ptr %198, align 2, !tbaa !23
  %199 = load i32, ptr %17, align 4, !tbaa !9
  %200 = load i32, ptr %18, align 4, !tbaa !9
  %201 = sub nsw i32 %199, %200
  %202 = add nsw i32 %201, 7
  %203 = ashr i32 %202, 4
  %204 = trunc i32 %203 to i16
  %205 = load ptr, ptr %6, align 8, !tbaa !20
  %206 = load i32, ptr %7, align 4, !tbaa !9
  %207 = add nsw i32 8, %206
  %208 = sext i32 %207 to i64
  %209 = getelementptr inbounds i16, ptr %205, i64 %208
  store i16 %204, ptr %209, align 2, !tbaa !23
  %210 = load i32, ptr %20, align 4, !tbaa !9
  %211 = mul nsw i32 %210, 2217
  %212 = load i32, ptr %19, align 4, !tbaa !9
  %213 = mul nsw i32 %212, 5352
  %214 = sub nsw i32 %211, %213
  %215 = add nsw i32 %214, 51000
  %216 = ashr i32 %215, 16
  %217 = trunc i32 %216 to i16
  %218 = load ptr, ptr %6, align 8, !tbaa !20
  %219 = load i32, ptr %7, align 4, !tbaa !9
  %220 = add nsw i32 12, %219
  %221 = sext i32 %220 to i64
  %222 = getelementptr inbounds i16, ptr %218, i64 %221
  store i16 %217, ptr %222, align 2, !tbaa !23
  call void @llvm.lifetime.end.p0(i64 4, ptr %20) #8
  call void @llvm.lifetime.end.p0(i64 4, ptr %19) #8
  call void @llvm.lifetime.end.p0(i64 4, ptr %18) #8
  call void @llvm.lifetime.end.p0(i64 4, ptr %17) #8
  br label %223

223:                                              ; preds = %126
  %224 = load i32, ptr %7, align 4, !tbaa !9
  %225 = add nsw i32 %224, 1
  store i32 %225, ptr %7, align 4, !tbaa !9
  br label %123, !llvm.loop !25

226:                                              ; preds = %123
  call void @llvm.lifetime.end.p0(i64 64, ptr %8) #8
  call void @llvm.lifetime.end.p0(i64 4, ptr %7) #8
  ret void
}