; Function Attrs: nofree norecurse nosync nounwind memory(argmem: readwrite) uwtable
define internal void @FTransform_C(ptr noalias noundef readonly captures(none) %0, ptr noalias noundef readonly captures(none) %1, ptr noalias noundef writeonly captures(none) %2) #0 {
  %4 = alloca [16 x i32], align 16
  call void @llvm.lifetime.start.p0(i64 64, ptr nonnull %4) #15
  br label %5

5:                                                ; preds = %3, %5
  %indvars.iv = phi i64 [ 0, %3 ], [ %indvars.iv.next, %5 ]
  %.064 = phi ptr [ %0, %3 ], [ %57, %5 ]
  %.05863 = phi ptr [ %1, %3 ], [ %58, %5 ]
  %6 = load i8, ptr %.064, align 1, !tbaa !14
  %7 = zext i8 %6 to i32
  %8 = load i8, ptr %.05863, align 1, !tbaa !14
  %9 = zext i8 %8 to i32
  %10 = sub nsw i32 %7, %9
  %11 = getelementptr inbounds nuw i8, ptr %.064, i64 1
  %12 = load i8, ptr %11, align 1, !tbaa !14
  %13 = zext i8 %12 to i32
  %14 = getelementptr inbounds nuw i8, ptr %.05863, i64 1
  %15 = load i8, ptr %14, align 1, !tbaa !14
  %16 = zext i8 %15 to i32
  %17 = sub nsw i32 %13, %16
  %18 = getelementptr inbounds nuw i8, ptr %.064, i64 2
  %19 = load i8, ptr %18, align 1, !tbaa !14
  %20 = zext i8 %19 to i32
  %21 = getelementptr inbounds nuw i8, ptr %.05863, i64 2
  %22 = load i8, ptr %21, align 1, !tbaa !14
  %23 = zext i8 %22 to i32
  %24 = sub nsw i32 %20, %23
  %25 = getelementptr inbounds nuw i8, ptr %.064, i64 3
  %26 = load i8, ptr %25, align 1, !tbaa !14
  %27 = zext i8 %26 to i32
  %28 = getelementptr inbounds nuw i8, ptr %.05863, i64 3
  %29 = load i8, ptr %28, align 1, !tbaa !14
  %30 = zext i8 %29 to i32
  %31 = sub nsw i32 %27, %30
  %32 = add nsw i32 %31, %10
  %33 = add nsw i32 %24, %17
  %34 = sub nsw i32 %17, %24
  %35 = sub nsw i32 %10, %31
  %36 = add nsw i32 %32, %33
  %37 = shl nsw i32 %36, 3
  %38 = shl nuw nsw i64 %indvars.iv, 2
  %39 = getelementptr inbounds nuw [16 x i32], ptr %4, i64 0, i64 %38
  store i32 %37, ptr %39, align 16, !tbaa !3
  %40 = mul nsw i32 %34, 2217
  %41 = mul nsw i32 %35, 5352
  %42 = add nsw i32 %40, 1812
  %43 = add nsw i32 %42, %41
  %44 = ashr i32 %43, 9
  %45 = or disjoint i64 %38, 1
  %46 = getelementptr inbounds nuw [16 x i32], ptr %4, i64 0, i64 %45
  store i32 %44, ptr %46, align 4, !tbaa !3
  %47 = sub nsw i32 %32, %33
  %48 = shl nsw i32 %47, 3
  %49 = or disjoint i64 %38, 2
  %50 = getelementptr inbounds nuw [16 x i32], ptr %4, i64 0, i64 %49
  store i32 %48, ptr %50, align 8, !tbaa !3
  %51 = mul nsw i32 %35, 2217
  %.neg60 = mul nsw i32 %34, -5352
  %52 = add nsw i32 %.neg60, 937
  %53 = add nsw i32 %52, %51
  %54 = ashr i32 %53, 9
  %55 = or disjoint i64 %38, 3
  %56 = getelementptr inbounds nuw [16 x i32], ptr %4, i64 0, i64 %55
  store i32 %54, ptr %56, align 4, !tbaa !3
  %indvars.iv.next = add nuw nsw i64 %indvars.iv, 1
  %57 = getelementptr inbounds nuw i8, ptr %.064, i64 32
  %58 = getelementptr inbounds nuw i8, ptr %.05863, i64 32
  %exitcond.not = icmp eq i64 %indvars.iv.next, 4
  br i1 %exitcond.not, label %.preheader, label %5, !llvm.loop !16

.preheader:                                       ; preds = %5, %.preheader
  %indvars.iv67 = phi i64 [ %indvars.iv.next68, %.preheader ], [ 0, %5 ]
  %59 = getelementptr inbounds nuw [16 x i32], ptr %4, i64 0, i64 %indvars.iv67
  %60 = load i32, ptr %59, align 4, !tbaa !3
  %61 = or disjoint i64 %indvars.iv67, 12
  %62 = getelementptr inbounds nuw [16 x i32], ptr %4, i64 0, i64 %61
  %63 = load i32, ptr %62, align 4, !tbaa !3
  %64 = add nsw i32 %63, %60
  %65 = or disjoint i64 %indvars.iv67, 4
  %66 = getelementptr inbounds nuw [16 x i32], ptr %4, i64 0, i64 %65
  %67 = load i32, ptr %66, align 4, !tbaa !3
  %68 = or disjoint i64 %indvars.iv67, 8
  %69 = getelementptr inbounds nuw [16 x i32], ptr %4, i64 0, i64 %68
  %70 = load i32, ptr %69, align 4, !tbaa !3
  %71 = add nsw i32 %70, %67
  %72 = sub nsw i32 %67, %70
  %73 = sub nsw i32 %60, %63
  %74 = add i32 %64, 7
  %75 = add i32 %74, %71
  %76 = lshr i32 %75, 4
  %77 = trunc i32 %76 to i16
  %78 = getelementptr inbounds nuw i16, ptr %2, i64 %indvars.iv67
  store i16 %77, ptr %78, align 2, !tbaa !17
  %79 = mul nsw i32 %72, 2217
  %80 = mul nsw i32 %73, 5352
  %81 = add i32 %80, 12000
  %82 = add i32 %81, %79
  %83 = lshr i32 %82, 16
  %84 = icmp ne i32 %60, %63
  %85 = zext i1 %84 to i32
  %86 = add nuw nsw i32 %83, %85
  %87 = trunc i32 %86 to i16
  %88 = getelementptr inbounds nuw i16, ptr %2, i64 %65
  store i16 %87, ptr %88, align 2, !tbaa !17
  %89 = sub i32 %74, %71
  %90 = lshr i32 %89, 4
  %91 = trunc i32 %90 to i16
  %92 = getelementptr inbounds nuw i16, ptr %2, i64 %68
  store i16 %91, ptr %92, align 2, !tbaa !17
  %93 = mul nsw i32 %73, 2217
  %.neg = mul i32 %72, -5352
  %94 = add i32 %93, 51000
  %95 = add i32 %94, %.neg
  %96 = lshr i32 %95, 16
  %97 = trunc nuw i32 %96 to i16
  %98 = getelementptr inbounds nuw i16, ptr %2, i64 %61
  store i16 %97, ptr %98, align 2, !tbaa !17
  %indvars.iv.next68 = add nuw nsw i64 %indvars.iv67, 1
  %exitcond70.not = icmp eq i64 %indvars.iv.next68, 4
  br i1 %exitcond70.not, label %99, label %.preheader, !llvm.loop !19

99:                                               ; preds = %.preheader
  call void @llvm.lifetime.end.p0(i64 64, ptr nonnull %4) #15
  ret void
}